; Function Attrs: mustprogress nofree norecurse nosync nounwind willreturn memory(argmem: read) uwtable
define hidden noundef range(i64 -288230376151711744, 288230376151711744) i64 @_ZNK19OpenColorIO_v2_5dev27MixingColorSpaceManagerImpl21getNumMixingEncodingsEv(ptr noundef nonnull readonly align 8 captures(none) dereferenceable(128) %0) unnamed_addr #13 align 2 {
  %2 = getelementptr inbounds nuw i8, ptr %0, i64 72
  %3 = getelementptr inbounds nuw i8, ptr %0, i64 80
  %4 = load ptr, ptr %3, align 8, !tbaa !46
  %5 = load ptr, ptr %2, align 8, !tbaa !42
  %6 = ptrtoint ptr %4 to i64
  %7 = ptrtoint ptr %5 to i64
  %8 = sub i64 %6, %7
  %9 = ashr exact i64 %8, 5
  ret i64 %9
}